; Function Attrs: nounwind uwtable
define dso_local noundef zeroext i1 @pg_parse_json_or_errsave(ptr noundef %0, ptr noundef %1, ptr noundef %2) local_unnamed_addr #0 {
  %4 = tail call i32 @pg_parse_json(ptr noundef %0, ptr noundef %1) #15
  %.not = icmp eq i32 %4, 0
  br i1 %.not, label %6, label %5

5:                                                ; preds = %3
  tail call void @json_errsave_error(i32 noundef %4, ptr noundef %0, ptr noundef %2)
  br label %6

6:                                                ; preds = %3, %5
  ret i1 %.not
}